; Function Attrs: nounwind uwtable
define internal fastcc void @malloc_init_hard_cleanup(ptr noundef %0, i1 noundef zeroext %1) unnamed_addr #2 {
  store atomic i8 0, ptr getelementptr inbounds nuw (i8, ptr @init_lock, i64 64) monotonic, align 8
  %3 = tail call i32 @pthread_mutex_unlock(ptr noundef nonnull getelementptr inbounds nuw (i8, ptr @init_lock, i64 72)) #20
  br i1 %1, label %4, label %post_reentrancy.exit

4:                                                ; preds = %2
  %5 = getelementptr inbounds nuw i8, ptr %0, i64 1
  %6 = load i8, ptr %5, align 1, !tbaa !11
  %7 = add i8 %6, -1
  store i8 %7, ptr %5, align 1, !tbaa !11
  %8 = icmp eq i8 %7, 0
  br i1 %8, label %9, label %post_reentrancy.exit

9:                                                ; preds = %4
  tail call void @je_tsd_slow_update(ptr noundef nonnull %0) #20
  br label %post_reentrancy.exit

post_reentrancy.exit:                             ; preds = %9, %4, %2
  ret void
}